(dp0
S'origin'
p1
ccopy_reg
_reconstructor
p2
(cgeometry_msgs.msg._Pose
Pose
p3
c__builtin__
object
p4
Ntp5
Rp6
(lp7
g2
(cgeometry_msgs.msg._Point
Point
p8
g4
Ntp9
Rp10
(lp11
F-8.599999809265137
aF-3.4999999046325683
aF0.0
abag2
(cgeometry_msgs.msg._Quaternion
Quaternion
p12
g4
Ntp13
Rp14
(lp15
F0.0
aF0.0
aF0.0
aI1
ababsS'res'
p16
F0.05000000074505806
sI2
(lp17
(lp18
(I120
I96
tp19
a(I120
I97
tp20
a(I120
I98
tp21
a(I120
I99
tp22
a(I120
I100
tp23
a(I120
I101
tp24
a(I120
I102
tp25
a(I120
I103
tp26
a(I120
I104
tp27
a(I120
I105
tp28
a(I120
I106
tp29
a(I120
I107
tp30
a(I120
I108
tp31
a(I120
I109
tp32
a(I120
I110
tp33
a(I120
I111
tp34
a(I120
I112
tp35
a(I120
I113
tp36
a(I120
I114
tp37
a(I120
I115
tp38
a(I120
I116
tp39
aa(lp40
g39
a(I120
I115
tp41
a(I120
I114
tp42
a(I120
I113
tp43
a(I120
I112
tp44
a(I120
I111
tp45
a(I120
I110
tp46
a(I120
I109
tp47
a(I120
I108
tp48
a(I120
I107
tp49
a(I120
I106
tp50
a(I120
I105
tp51
a(I120
I104
tp52
a(I120
I103
tp53
a(I120
I102
tp54
a(I120
I101
tp55
a(I120
I100
tp56
a(I120
I99
tp57
a(I120
I98
tp58
a(I120
I97
tp59
a(I120
I96
tp60
aasI1
(lp61
(lp62
(I121
I129
tp63
a(I120
I129
tp64
a(I119
I129
tp65
a(I118
I129
tp66
a(I117
I129
tp67
a(I116
I129
tp68
a(I115
I128
tp69
a(I114
I128
tp70
a(I113
I127
tp71
a(I112
I126
tp72
a(I111
I125
tp73
a(I110
I124
tp74
a(I109
I123
tp75
a(I108
I122
tp76
a(I107
I122
tp77
a(I106
I122
tp78
a(I105
I122
tp79
a(I104
I122
tp80
a(I103
I122
tp81
a(I102
I122
tp82
a(I101
I122
tp83
a(I100
I122
tp84
a(I99
I122
tp85
a(I98
I122
tp86
a(I97
I122
tp87
a(I96
I122
tp88
a(I95
I122
tp89
a(I94
I121
tp90
a(I93
I121
tp91
a(I92
I121
tp92
a(I91
I121
tp93
a(I90
I121
tp94
a(I89
I121
tp95
a(I88
I121
tp96
a(I87
I120
tp97
a(I86
I119
tp98
a(I85
I118
tp99
a(I85
I117
tp100
a(I85
I116
tp101
a(I86
I115
tp102
aa(lp103
g102
a(I85
I116
tp104
a(I85
I117
tp105
a(I85
I118
tp106
a(I86
I119
tp107
a(I87
I120
tp108
a(I88
I121
tp109
a(I89
I121
tp110
a(I90
I121
tp111
a(I91
I121
tp112
a(I92
I121
tp113
a(I93
I121
tp114
a(I94
I121
tp115
a(I95
I122
tp116
a(I96
I122
tp117
a(I97
I122
tp118
a(I98
I122
tp119
a(I99
I122
tp120
a(I100
I122
tp121
a(I101
I122
tp122
a(I102
I122
tp123
a(I103
I122
tp124
a(I104
I121
tp125
a(I105
I120
tp126
a(I106
I119
tp127
a(I107
I119
tp128
a(I108
I118
tp129
a(I109
I117
tp130
a(I110
I116
tp131
a(I111
I115
tp132
a(I112
I114
tp133
a(I112
I113
tp134
a(I113
I112
tp135
a(I113
I111
tp136
a(I114
I110
tp137
a(I114
I109
tp138
a(I114
I108
tp139
a(I115
I107
tp140
a(I115
I106
tp141
a(I116
I105
tp142
a(I116
I104
tp143
a(I117
I103
tp144
a(I117
I102
tp145
a(I118
I101
tp146
a(I118
I100
tp147
a(I119
I99
tp148
a(I119
I98
tp149
a(I120
I97
tp150
a(I120
I96
tp151
aas.