(dp0
S'origin'
p1
ccopy_reg
_reconstructor
p2
(cgeometry_msgs.msg._Pose
Pose
p3
c__builtin__
object
p4
Ntp5
Rp6
(lp7
g2
(cgeometry_msgs.msg._Point
Point
p8
g4
Ntp9
Rp10
(lp11
F-8.599999809265137
aF-3.4999999046325683
aF0.0
abag2
(cgeometry_msgs.msg._Quaternion
Quaternion
p12
g4
Ntp13
Rp14
(lp15
F0.0
aF0.0
aF0.0
aI1
ababsS'res'
p16
F0.05000000074505806
sI3
(lp17
(lp18
(I120
I96
tp19
a(I119
I97
tp20
a(I118
I98
tp21
a(I117
I99
tp22
a(I116
I100
tp23
a(I116
I101
tp24
a(I115
I102
tp25
a(I115
I103
tp26
a(I115
I104
tp27
a(I114
I105
tp28
a(I113
I106
tp29
a(I113
I107
tp30
a(I113
I108
tp31
a(I113
I109
tp32
a(I112
I110
tp33
a(I112
I111
tp34
a(I112
I112
tp35
a(I111
I113
tp36
a(I111
I114
tp37
a(I110
I115
tp38
a(I110
I116
tp39
a(I109
I117
tp40
a(I108
I118
tp41
a(I107
I119
tp42
a(I106
I119
tp43
a(I105
I120
tp44
a(I104
I120
tp45
a(I103
I120
tp46
a(I102
I120
tp47
a(I101
I120
tp48
a(I100
I120
tp49
a(I99
I120
tp50
a(I98
I121
tp51
a(I97
I122
tp52
a(I96
I122
tp53
a(I95
I122
tp54
a(I94
I121
tp55
a(I93
I120
tp56
a(I92
I119
tp57
a(I91
I118
tp58
a(I90
I117
tp59
a(I89
I116
tp60
a(I88
I115
tp61
a(I87
I114
tp62
a(I86
I113
tp63
aa(lp64
g63
a(I87
I114
tp65
a(I88
I115
tp66
a(I89
I116
tp67
a(I90
I117
tp68
a(I91
I118
tp69
a(I92
I119
tp70
a(I93
I120
tp71
a(I94
I121
tp72
a(I95
I122
tp73
a(I96
I122
tp74
a(I97
I122
tp75
a(I98
I121
tp76
a(I99
I120
tp77
a(I100
I120
tp78
a(I101
I120
tp79
a(I102
I120
tp80
a(I103
I120
tp81
a(I104
I120
tp82
a(I105
I120
tp83
a(I106
I119
tp84
a(I107
I119
tp85
a(I108
I118
tp86
a(I109
I117
tp87
a(I110
I116
tp88
a(I111
I115
tp89
a(I112
I114
tp90
a(I112
I113
tp91
a(I113
I112
tp92
a(I113
I111
tp93
a(I114
I110
tp94
a(I114
I109
tp95
a(I115
I108
tp96
a(I115
I107
tp97
a(I115
I106
tp98
a(I116
I105
tp99
a(I116
I104
tp100
a(I117
I103
tp101
a(I117
I102
tp102
a(I118
I101
tp103
a(I118
I100
tp104
a(I119
I99
tp105
a(I119
I98
tp106
a(I120
I97
tp107
a(I120
I96
tp108
aasI7
(lp109
(lp110
(I121
I129
tp111
a(I120
I129
tp112
a(I119
I129
tp113
a(I118
I129
tp114
a(I117
I129
tp115
a(I116
I129
tp116
a(I115
I129
tp117
a(I114
I129
tp118
a(I113
I129
tp119
a(I112
I129
tp120
a(I111
I129
tp121
a(I110
I129
tp122
a(I109
I128
tp123
a(I108
I127
tp124
a(I107
I126
tp125
a(I106
I126
tp126
a(I105
I126
tp127
a(I104
I126
tp128
a(I103
I126
tp129
a(I102
I126
tp130
aa(lp131
g130
a(I103
I125
tp132
a(I104
I124
tp133
a(I105
I123
tp134
a(I106
I122
tp135
a(I107
I121
tp136
a(I108
I120
tp137
a(I109
I119
tp138
a(I110
I118
tp139
a(I110
I117
tp140
a(I111
I116
tp141
a(I112
I115
tp142
a(I113
I114
tp143
a(I113
I113
tp144
a(I114
I112
tp145
a(I114
I111
tp146
a(I115
I110
tp147
a(I115
I109
tp148
a(I116
I108
tp149
a(I117
I107
tp150
a(I117
I106
tp151
a(I117
I105
tp152
a(I117
I104
tp153
a(I118
I103
tp154
a(I119
I102
tp155
a(I120
I101
tp156
a(I120
I100
tp157
a(I120
I99
tp158
a(I120
I98
tp159
a(I120
I97
tp160
a(I120
I96
tp161
aas.